; Function Attrs: nofree norecurse nosync nounwind memory(read, argmem: readwrite, inaccessiblemem: none) uwtable
define dso_local void @rlwit_discard_first_words(ptr noundef captures(none) %0, i64 noundef %1) local_unnamed_addr #1 {
  %.not42 = icmp eq i64 %1, 0
  br i1 %.not42, label %.thread, label %.lr.ph

.lr.ph:                                           ; preds = %2
  %3 = getelementptr inbounds nuw i8, ptr %0, i64 44
  %4 = getelementptr inbounds nuw i8, ptr %0, i64 40
  %5 = getelementptr inbounds nuw i8, ptr %0, i64 24
  %6 = getelementptr inbounds nuw i8, ptr %0, i64 16
  %7 = getelementptr inbounds nuw i8, ptr %0, i64 8
  %8 = getelementptr inbounds nuw i8, ptr %0, i64 32
  %9 = getelementptr inbounds nuw i8, ptr %0, i64 52
  %10 = getelementptr inbounds nuw i8, ptr %0, i64 48
  %.promoted = load i32, ptr %3, align 4, !tbaa !22
  br label %11

11:                                               ; preds = %.lr.ph, %31
  %12 = phi i32 [ %.promoted, %.lr.ph ], [ %40, %31 ]
  %.02443 = phi i64 [ %1, %.lr.ph ], [ %26, %31 ]
  %13 = sext i32 %12 to i64
  %14 = icmp ult i64 %.02443, %13
  br i1 %14, label %15, label %18

15:                                               ; preds = %11
  %16 = trunc i64 %.02443 to i32
  %17 = sub i32 %12, %16
  store i32 %17, ptr %3, align 4, !tbaa !22
  br label %.thread

18:                                               ; preds = %11
  %19 = sub nuw i64 %.02443, %13
  store i32 0, ptr %3, align 4, !tbaa !22
  %20 = load i32, ptr %4, align 8, !tbaa !18
  %21 = sext i32 %20 to i64
  %. = tail call i64 @llvm.umin.i64(i64 %19, i64 %21)
  %22 = load i64, ptr %5, align 8, !tbaa !24
  %23 = add i64 %., %22
  store i64 %23, ptr %5, align 8, !tbaa !24
  %24 = trunc i64 %. to i32
  %25 = sub i32 %20, %24
  store i32 %25, ptr %4, align 8, !tbaa !18
  %26 = sub i64 %19, %.
  %.not29 = icmp ne i64 %26, 0
  %27 = icmp eq i32 %20, %24
  %or.cond = or i1 %.not29, %27
  br i1 %or.cond, label %28, label %.thread

28:                                               ; preds = %18
  %29 = load i64, ptr %6, align 8, !tbaa !17
  %30 = load i64, ptr %7, align 8, !tbaa !16
  %.not.i = icmp ult i64 %29, %30
  br i1 %.not.i, label %31, label %.thread

31:                                               ; preds = %28
  %32 = load ptr, ptr %0, align 8, !tbaa !11
  %33 = getelementptr inbounds nuw i64, ptr %32, i64 %29
  store ptr %33, ptr %8, align 8, !tbaa !20
  %.val.i = load i64, ptr %33, align 8, !tbaa !21
  %34 = lshr i64 %.val.i, 33
  %35 = add nuw i64 %29, 1
  %36 = add i64 %35, %34
  store i64 %36, ptr %6, align 8, !tbaa !17
  %.val15.i = load i64, ptr %33, align 8, !tbaa !21
  %37 = lshr i64 %.val15.i, 33
  %38 = trunc nuw nsw i64 %37 to i32
  store i32 %38, ptr %4, align 8, !tbaa !18
  %39 = lshr i64 %.val15.i, 1
  %40 = trunc i64 %39 to i32
  store i32 %40, ptr %3, align 4, !tbaa !22
  %41 = trunc i64 %.val15.i to i32
  %42 = and i32 %41, 1
  store i32 %42, ptr %9, align 4, !tbaa !23
  store i32 0, ptr %10, align 8, !tbaa !19
  %43 = sub i64 %36, %37
  store i64 %43, ptr %5, align 8, !tbaa !24
  %.not = icmp eq i64 %26, 0
  br i1 %.not, label %.thread, label %11

.thread:                                          ; preds = %18, %31, %28, %2, %15
  ret void
}